target datalayout = "e-m:e-p270:32:32-p271:32:32-p272:64:64-i64:64-i128:128-f80:128-n8:16:32:64-S128"
target triple = "x86_64-pc-linux-gnu"

%struct._priv_exr_context_t = type { i8, i8, i8, i8, i8, i8, i8, i8, %struct.exr_attr_string_t, %struct.exr_attr_string_t, ptr, ptr, ptr, ptr, ptr, ptr, ptr, ptr, i32, i32, i32, i32, i32, float, ptr, ptr, ptr, i64, ptr, ptr, i64, i32, i32, i32, i32, %struct._priv_exr_part_t, ptr, ptr, %struct.exr_attribute_list, %union.pthread_mutex_t, i8, i8, [2 x i8], i32 }
%struct.exr_attr_string_t = type { i32, i32, ptr }
%struct._priv_exr_part_t = type { i32, i32, %struct.exr_attribute_list, ptr, ptr, ptr, ptr, ptr, ptr, ptr, ptr, ptr, ptr, ptr, ptr, ptr, ptr, %struct.exr_attr_box2i_t, %struct.exr_attr_box2i_t, i32, i32, i32, float, i32, i32, ptr, ptr, ptr, ptr, i64, i16, i16, i32, i64, i64 }
%struct.exr_attr_box2i_t = type { %struct.exr_attr_v2i_t, %struct.exr_attr_v2i_t }
%struct.exr_attr_v2i_t = type { i32, i32 }
%struct.exr_attribute_list = type { i32, i32, ptr, ptr }
%union.pthread_mutex_t = type { %struct.__pthread_mutex_s }
%struct.__pthread_mutex_s = type { i32, i32, i32, i32, i32, i16, i16, %struct.__pthread_internal_list }
%struct.__pthread_internal_list = type { ptr, ptr }
%struct.exr_attribute_t = type { ptr, ptr, i8, i8, [2 x i8], i32, %union.anon }
%union.anon = type { double }
%struct.exr_attr_tiledesc_t = type <{ i32, i32, i8 }>

@.str = private unnamed_addr constant [29 x i8] c"Part index (%d) out of range\00", align 1
@.str.13 = private unnamed_addr constant [29 x i8] c"Tile data missing or corrupt\00", align 1

; Function Attrs: inlinehint nounwind uwtable
define internal void @internal_exr_unlock(ptr noundef %0) #2 {
  %2 = alloca ptr, align 8
  %3 = alloca ptr, align 8
  store ptr %0, ptr %2, align 8, !tbaa !3
  call void @llvm.lifetime.start.p0(i64 8, ptr %3) #6
  %4 = load ptr, ptr %2, align 8, !tbaa !3
  %5 = ptrtoint ptr %4 to i64
  %6 = inttoptr i64 %5 to ptr
  store ptr %6, ptr %3, align 8, !tbaa !3
  %7 = load ptr, ptr %3, align 8, !tbaa !3
  %8 = getelementptr inbounds nuw %struct._priv_exr_context_t, ptr %7, i32 0, i32 39
  %9 = call i32 @pthread_mutex_unlock(ptr noundef %8) #6
  call void @llvm.lifetime.end.p0(i64 8, ptr %3) #6
  ret void
}

; Function Attrs: inlinehint nounwind uwtable
define internal void @internal_exr_lock(ptr noundef %0) #2 {
  %2 = alloca ptr, align 8
  %3 = alloca ptr, align 8
  store ptr %0, ptr %2, align 8, !tbaa !3
  call void @llvm.lifetime.start.p0(i64 8, ptr %3) #6
  %4 = load ptr, ptr %2, align 8, !tbaa !3
  %5 = ptrtoint ptr %4 to i64
  %6 = inttoptr i64 %5 to ptr
  store ptr %6, ptr %3, align 8, !tbaa !3
  %7 = load ptr, ptr %3, align 8, !tbaa !3
  %8 = getelementptr inbounds nuw %struct._priv_exr_context_t, ptr %7, i32 0, i32 39
  %9 = call i32 @pthread_mutex_lock(ptr noundef %8) #6
  call void @llvm.lifetime.end.p0(i64 8, ptr %3) #6
  ret void
}

; Function Attrs: nounwind uwtable
define i32 @exr_get_tile_sizes(ptr noundef %0, i32 noundef %1, i32 noundef %2, i32 noundef %3, ptr noundef %4, ptr noundef %5) #0 {
  %7 = alloca i32, align 4
  %8 = alloca ptr, align 8
  %9 = alloca i32, align 4
  %10 = alloca i32, align 4
  %11 = alloca i32, align 4
  %12 = alloca ptr, align 8
  %13 = alloca ptr, align 8
  %14 = alloca ptr, align 8
  %15 = alloca i32, align 4
  %16 = alloca ptr, align 8
  %17 = alloca i32, align 4
  %18 = alloca i32, align 4
  store ptr %0, ptr %8, align 8, !tbaa !3
  store i32 %1, ptr %9, align 4, !tbaa !27
  store i32 %2, ptr %10, align 4, !tbaa !27
  store i32 %3, ptr %11, align 4, !tbaa !27
  store ptr %4, ptr %12, align 8, !tbaa !8
  store ptr %5, ptr %13, align 8, !tbaa !8
  call void @llvm.lifetime.start.p0(i64 8, ptr %14) #6
  %19 = load ptr, ptr %8, align 8, !tbaa !3
  %20 = icmp ne ptr %19, null
  br i1 %20, label %22, label %21

21:                                               ; preds = %6
  store i32 2, ptr %7, align 4
  store i32 1, ptr %15, align 4
  br label %225

22:                                               ; preds = %6
  %23 = load ptr, ptr %8, align 8, !tbaa !3
  %24 = getelementptr inbounds nuw %struct._priv_exr_context_t, ptr %23, i32 0, i32 0
  %25 = load i8, ptr %24, align 8, !tbaa !25
  %26 = zext i8 %25 to i32
  %27 = icmp eq i32 %26, 1
  br i1 %27, label %28, label %30

28:                                               ; preds = %22
  %29 = load ptr, ptr %8, align 8, !tbaa !3
  call void @internal_exr_lock(ptr noundef %29)
  br label %30

30:                                               ; preds = %28, %22
  %31 = load i32, ptr %9, align 4, !tbaa !27
  %32 = icmp slt i32 %31, 0
  br i1 %32, label %39, label %33

33:                                               ; preds = %30
  %34 = load i32, ptr %9, align 4, !tbaa !27
  %35 = load ptr, ptr %8, align 8, !tbaa !3
  %36 = getelementptr inbounds nuw %struct._priv_exr_context_t, ptr %35, i32 0, i32 34
  %37 = load i32, ptr %36, align 4, !tbaa !26
  %38 = icmp sge i32 %34, %37
  br i1 %38, label %39, label %54

39:                                               ; preds = %33, %30
  %40 = load ptr, ptr %8, align 8, !tbaa !3
  %41 = getelementptr inbounds nuw %struct._priv_exr_context_t, ptr %40, i32 0, i32 0
  %42 = load i8, ptr %41, align 8, !tbaa !25
  %43 = zext i8 %42 to i32
  %44 = icmp eq i32 %43, 1
  br i1 %44, label %45, label %47

45:                                               ; preds = %39
  %46 = load ptr, ptr %8, align 8, !tbaa !3
  call void @internal_exr_unlock(ptr noundef %46)
  br label %47

47:                                               ; preds = %45, %39
  %48 = load ptr, ptr %8, align 8, !tbaa !3
  %49 = getelementptr inbounds nuw %struct._priv_exr_context_t, ptr %48, i32 0, i32 14
  %50 = load ptr, ptr %49, align 8, !tbaa !29
  %51 = load ptr, ptr %8, align 8, !tbaa !3
  %52 = load i32, ptr %9, align 4, !tbaa !27
  %53 = call i32 (ptr, i32, ptr, ...) %50(ptr noundef %51, i32 noundef 4, ptr noundef @.str, i32 noundef %52)
  store i32 %53, ptr %7, align 4
  store i32 1, ptr %15, align 4
  br label %225

54:                                               ; preds = %33
  %55 = load ptr, ptr %8, align 8, !tbaa !3
  %56 = getelementptr inbounds nuw %struct._priv_exr_context_t, ptr %55, i32 0, i32 37
  %57 = load ptr, ptr %56, align 8, !tbaa !30
  %58 = load i32, ptr %9, align 4, !tbaa !27
  %59 = sext i32 %58 to i64
  %60 = getelementptr inbounds ptr, ptr %57, i64 %59
  %61 = load ptr, ptr %60, align 8, !tbaa !31
  store ptr %61, ptr %14, align 8, !tbaa !31
  %62 = load ptr, ptr %14, align 8, !tbaa !31
  %63 = getelementptr inbounds nuw %struct._priv_exr_part_t, ptr %62, i32 0, i32 1
  %64 = load i32, ptr %63, align 4, !tbaa !32
  %65 = icmp eq i32 %64, 1
  br i1 %65, label %71, label %66

66:                                               ; preds = %54
  %67 = load ptr, ptr %14, align 8, !tbaa !31
  %68 = getelementptr inbounds nuw %struct._priv_exr_part_t, ptr %67, i32 0, i32 1
  %69 = load i32, ptr %68, align 4, !tbaa !32
  %70 = icmp eq i32 %69, 3
  br i1 %70, label %71, label %210

71:                                               ; preds = %66, %54
  call void @llvm.lifetime.start.p0(i64 8, ptr %16) #6
  %72 = load ptr, ptr %14, align 8, !tbaa !31
  %73 = getelementptr inbounds nuw %struct._priv_exr_part_t, ptr %72, i32 0, i32 11
  %74 = load ptr, ptr %73, align 8, !tbaa !45
  %75 = icmp ne ptr %74, null
  br i1 %75, label %76, label %96

76:                                               ; preds = %71
  %77 = load ptr, ptr %14, align 8, !tbaa !31
  %78 = getelementptr inbounds nuw %struct._priv_exr_part_t, ptr %77, i32 0, i32 23
  %79 = load i32, ptr %78, align 8, !tbaa !46
  %80 = icmp sle i32 %79, 0
  br i1 %80, label %96, label %81

81:                                               ; preds = %76
  %82 = load ptr, ptr %14, align 8, !tbaa !31
  %83 = getelementptr inbounds nuw %struct._priv_exr_part_t, ptr %82, i32 0, i32 24
  %84 = load i32, ptr %83, align 4, !tbaa !47
  %85 = icmp sle i32 %84, 0
  br i1 %85, label %96, label %86

86:                                               ; preds = %81
  %87 = load ptr, ptr %14, align 8, !tbaa !31
  %88 = getelementptr inbounds nuw %struct._priv_exr_part_t, ptr %87, i32 0, i32 25
  %89 = load ptr, ptr %88, align 8, !tbaa !48
  %90 = icmp ne ptr %89, null
  br i1 %90, label %91, label %96

91:                                               ; preds = %86
  %92 = load ptr, ptr %14, align 8, !tbaa !31
  %93 = getelementptr inbounds nuw %struct._priv_exr_part_t, ptr %92, i32 0, i32 26
  %94 = load ptr, ptr %93, align 8, !tbaa !49
  %95 = icmp ne ptr %94, null
  br i1 %95, label %111, label %96

96:                                               ; preds = %91, %86, %81, %76, %71
  %97 = load ptr, ptr %8, align 8, !tbaa !3
  %98 = getelementptr inbounds nuw %struct._priv_exr_context_t, ptr %97, i32 0, i32 0
  %99 = load i8, ptr %98, align 8, !tbaa !25
  %100 = zext i8 %99 to i32
  %101 = icmp eq i32 %100, 1
  br i1 %101, label %102, label %104

102:                                              ; preds = %96
  %103 = load ptr, ptr %8, align 8, !tbaa !3
  call void @internal_exr_unlock(ptr noundef %103)
  br label %105

104:                                              ; preds = %96
  br label %105

105:                                              ; preds = %104, %102
  %106 = load ptr, ptr %8, align 8, !tbaa !3
  %107 = getelementptr inbounds nuw %struct._priv_exr_context_t, ptr %106, i32 0, i32 14
  %108 = load ptr, ptr %107, align 8, !tbaa !29
  %109 = load ptr, ptr %8, align 8, !tbaa !3
  %110 = call i32 (ptr, i32, ptr, ...) %108(ptr noundef %109, i32 noundef 13, ptr noundef @.str.13)
  store i32 %110, ptr %7, align 4
  store i32 1, ptr %15, align 4
  br label %209

111:                                              ; preds = %91
  %112 = load i32, ptr %10, align 4, !tbaa !27
  %113 = icmp slt i32 %112, 0
  br i1 %113, label %129, label %114

114:                                              ; preds = %111
  %115 = load i32, ptr %11, align 4, !tbaa !27
  %116 = icmp slt i32 %115, 0
  br i1 %116, label %129, label %117

117:                                              ; preds = %114
  %118 = load i32, ptr %10, align 4, !tbaa !27
  %119 = load ptr, ptr %14, align 8, !tbaa !31
  %120 = getelementptr inbounds nuw %struct._priv_exr_part_t, ptr %119, i32 0, i32 23
  %121 = load i32, ptr %120, align 8, !tbaa !46
  %122 = icmp sge i32 %118, %121
  br i1 %122, label %129, label %123

123:                                              ; preds = %117
  %124 = load i32, ptr %11, align 4, !tbaa !27
  %125 = load ptr, ptr %14, align 8, !tbaa !31
  %126 = getelementptr inbounds nuw %struct._priv_exr_part_t, ptr %125, i32 0, i32 24
  %127 = load i32, ptr %126, align 4, !tbaa !47
  %128 = icmp sge i32 %124, %127
  br i1 %128, label %129, label %144

129:                                              ; preds = %123, %117, %114, %111
  %130 = load ptr, ptr %8, align 8, !tbaa !3
  %131 = getelementptr inbounds nuw %struct._priv_exr_context_t, ptr %130, i32 0, i32 0
  %132 = load i8, ptr %131, align 8, !tbaa !25
  %133 = zext i8 %132 to i32
  %134 = icmp eq i32 %133, 1
  br i1 %134, label %135, label %137

135:                                              ; preds = %129
  %136 = load ptr, ptr %8, align 8, !tbaa !3
  call void @internal_exr_unlock(ptr noundef %136)
  br label %138

137:                                              ; preds = %129
  br label %138

138:                                              ; preds = %137, %135
  %139 = load ptr, ptr %8, align 8, !tbaa !3
  %140 = getelementptr inbounds nuw %struct._priv_exr_context_t, ptr %139, i32 0, i32 12
  %141 = load ptr, ptr %140, align 8, !tbaa !10
  %142 = load ptr, ptr %8, align 8, !tbaa !3
  %143 = call i32 %141(ptr noundef %142, i32 noundef 4)
  store i32 %143, ptr %7, align 4
  store i32 1, ptr %15, align 4
  br label %209

144:                                              ; preds = %123
  %145 = load ptr, ptr %14, align 8, !tbaa !31
  %146 = getelementptr inbounds nuw %struct._priv_exr_part_t, ptr %145, i32 0, i32 11
  %147 = load ptr, ptr %146, align 8, !tbaa !45
  %148 = getelementptr inbounds nuw %struct.exr_attribute_t, ptr %147, i32 0, i32 6
  %149 = load ptr, ptr %148, align 8, !tbaa !36
  store ptr %149, ptr %16, align 8, !tbaa !28
  %150 = load ptr, ptr %12, align 8, !tbaa !8
  %151 = icmp ne ptr %150, null
  br i1 %151, label %152, label %174

152:                                              ; preds = %144
  call void @llvm.lifetime.start.p0(i64 4, ptr %17) #6
  %153 = load ptr, ptr %14, align 8, !tbaa !31
  %154 = getelementptr inbounds nuw %struct._priv_exr_part_t, ptr %153, i32 0, i32 27
  %155 = load ptr, ptr %154, align 8, !tbaa !50
  %156 = load i32, ptr %10, align 4, !tbaa !27
  %157 = sext i32 %156 to i64
  %158 = getelementptr inbounds i32, ptr %155, i64 %157
  %159 = load i32, ptr %158, align 4, !tbaa !27
  store i32 %159, ptr %17, align 4, !tbaa !27
  %160 = load ptr, ptr %16, align 8, !tbaa !28
  %161 = getelementptr inbounds nuw %struct.exr_attr_tiledesc_t, ptr %160, i32 0, i32 0
  %162 = load i32, ptr %161, align 1, !tbaa !51
  %163 = load i32, ptr %17, align 4, !tbaa !27
  %164 = icmp ult i32 %162, %163
  br i1 %164, label %165, label %170

165:                                              ; preds = %152
  %166 = load ptr, ptr %16, align 8, !tbaa !28
  %167 = getelementptr inbounds nuw %struct.exr_attr_tiledesc_t, ptr %166, i32 0, i32 0
  %168 = load i32, ptr %167, align 1, !tbaa !51
  %169 = load ptr, ptr %12, align 8, !tbaa !8
  store i32 %168, ptr %169, align 4, !tbaa !27
  br label %173

170:                                              ; preds = %152
  %171 = load i32, ptr %17, align 4, !tbaa !27
  %172 = load ptr, ptr %12, align 8, !tbaa !8
  store i32 %171, ptr %172, align 4, !tbaa !27
  br label %173

173:                                              ; preds = %170, %165
  call void @llvm.lifetime.end.p0(i64 4, ptr %17) #6
  br label %174

174:                                              ; preds = %173, %144
  %175 = load ptr, ptr %13, align 8, !tbaa !8
  %176 = icmp ne ptr %175, null
  br i1 %176, label %177, label %199

177:                                              ; preds = %174
  call void @llvm.lifetime.start.p0(i64 4, ptr %18) #6
  %178 = load ptr, ptr %14, align 8, !tbaa !31
  %179 = getelementptr inbounds nuw %struct._priv_exr_part_t, ptr %178, i32 0, i32 28
  %180 = load ptr, ptr %179, align 8, !tbaa !53
  %181 = load i32, ptr %11, align 4, !tbaa !27
  %182 = sext i32 %181 to i64
  %183 = getelementptr inbounds i32, ptr %180, i64 %182
  %184 = load i32, ptr %183, align 4, !tbaa !27
  store i32 %184, ptr %18, align 4, !tbaa !27
  %185 = load ptr, ptr %16, align 8, !tbaa !28
  %186 = getelementptr inbounds nuw %struct.exr_attr_tiledesc_t, ptr %185, i32 0, i32 1
  %187 = load i32, ptr %186, align 1, !tbaa !54
  %188 = load i32, ptr %18, align 4, !tbaa !27
  %189 = icmp ult i32 %187, %188
  br i1 %189, label %190, label %195

190:                                              ; preds = %177
  %191 = load ptr, ptr %16, align 8, !tbaa !28
  %192 = getelementptr inbounds nuw %struct.exr_attr_tiledesc_t, ptr %191, i32 0, i32 1
  %193 = load i32, ptr %192, align 1, !tbaa !54
  %194 = load ptr, ptr %13, align 8, !tbaa !8
  store i32 %193, ptr %194, align 4, !tbaa !27
  br label %198

195:                                              ; preds = %177
  %196 = load i32, ptr %18, align 4, !tbaa !27
  %197 = load ptr, ptr %13, align 8, !tbaa !8
  store i32 %196, ptr %197, align 4, !tbaa !27
  br label %198

198:                                              ; preds = %195, %190
  call void @llvm.lifetime.end.p0(i64 4, ptr %18) #6
  br label %199

199:                                              ; preds = %198, %174
  %200 = load ptr, ptr %8, align 8, !tbaa !3
  %201 = getelementptr inbounds nuw %struct._priv_exr_context_t, ptr %200, i32 0, i32 0
  %202 = load i8, ptr %201, align 8, !tbaa !25
  %203 = zext i8 %202 to i32
  %204 = icmp eq i32 %203, 1
  br i1 %204, label %205, label %207

205:                                              ; preds = %199
  %206 = load ptr, ptr %8, align 8, !tbaa !3
  call void @internal_exr_unlock(ptr noundef %206)
  br label %208

207:                                              ; preds = %199
  br label %208

208:                                              ; preds = %207, %205
  store i32 0, ptr %7, align 4
  store i32 1, ptr %15, align 4
  br label %209

209:                                              ; preds = %208, %138, %105
  call void @llvm.lifetime.end.p0(i64 8, ptr %16) #6
  br label %225

210:                                              ; preds = %66
  %211 = load ptr, ptr %8, align 8, !tbaa !3
  %212 = getelementptr inbounds nuw %struct._priv_exr_context_t, ptr %211, i32 0, i32 0
  %213 = load i8, ptr %212, align 8, !tbaa !25
  %214 = zext i8 %213 to i32
  %215 = icmp eq i32 %214, 1
  br i1 %215, label %216, label %218

216:                                              ; preds = %210
  %217 = load ptr, ptr %8, align 8, !tbaa !3
  call void @internal_exr_unlock(ptr noundef %217)
  br label %219

218:                                              ; preds = %210
  br label %219

219:                                              ; preds = %218, %216
  %220 = load ptr, ptr %8, align 8, !tbaa !3
  %221 = getelementptr inbounds nuw %struct._priv_exr_context_t, ptr %220, i32 0, i32 12
  %222 = load ptr, ptr %221, align 8, !tbaa !10
  %223 = load ptr, ptr %8, align 8, !tbaa !3
  %224 = call i32 %222(ptr noundef %223, i32 noundef 19)
  store i32 %224, ptr %7, align 4
  store i32 1, ptr %15, align 4
  br label %225

225:                                              ; preds = %219, %209, %47, %21
  call void @llvm.lifetime.end.p0(i64 8, ptr %14) #6
  %226 = load i32, ptr %7, align 4
  ret i32 %226
}